target datalayout = "e-m:e-p270:32:32-p271:32:32-p272:64:64-i64:64-i128:128-f80:128-n8:16:32:64-S128"
target triple = "x86_64-pc-linux-gnu"

%struct.slurm_opt_t = type { ptr, ptr, ptr, ptr, ptr, ptr, ptr, ptr, i32, ptr, ptr, ptr, ptr, i32, i32, ptr, i32, i8, i8, i32, i8, i32, i32, ptr, i8, i32, i32, i64, i32, i32, i32, i32, i32, i32, ptr, i32, ptr, i8, i32, i32, ptr, i32, i32, i32, ptr, ptr, i32, i32, ptr, ptr, ptr, i32, i16, i16, i16, i8, i8, ptr, i8, i16, ptr, ptr, i32, i32, i32, ptr, ptr, ptr, ptr, ptr, ptr, i32, i64, i64, i64, i16, i64, ptr, ptr, ptr, ptr, ptr, ptr, ptr, i8, ptr, ptr, ptr, ptr, i8, i64, ptr, i16, ptr, i32, i32, ptr, ptr, i32, i32, i32, ptr, i32, i32, i32, i32, i32, ptr, i64, i32, i16, i32, ptr, ptr, ptr, ptr, ptr, i16, ptr, ptr, i16, i8, ptr, ptr, ptr, ptr }
%struct.job_descriptor = type { ptr, ptr, ptr, ptr, i16, i32, i32, ptr, ptr, ptr, ptr, i64, i64, ptr, ptr, ptr, ptr, i16, ptr, ptr, i16, ptr, i16, i32, i32, i32, ptr, ptr, i64, i32, ptr, i64, ptr, %struct.slurm_hash_t, i32, ptr, ptr, ptr, i64, i64, i32, i32, ptr, i16, i32, ptr, ptr, i16, ptr, ptr, i16, ptr, ptr, ptr, i16, ptr, ptr, ptr, i32, i32, i16, i8, ptr, i16, i8, ptr, i16, ptr, i32, i32, ptr, i16, ptr, i16, ptr, i16, ptr, i16, ptr, ptr, %struct.slurm_hash_t, i16, i32, ptr, i32, ptr, i32, i32, i32, ptr, ptr, ptr, ptr, ptr, ptr, i32, i16, i16, i16, i16, ptr, i16, i32, i32, i32, i32, i16, i16, i16, i16, i16, i16, i16, i16, i16, i16, i16, i64, i32, ptr, i32, i16, ptr, ptr, ptr, ptr, ptr, i32, ptr, i16, ptr, ptr, i16 }
%struct.slurm_hash_t = type { i8, [32 x i8] }

@opt_list = external global ptr, align 8
@opt = external global %struct.slurm_opt_t, align 8
@working_cluster_rec = external global ptr, align 8

; Function Attrs: nounwind uwtable
define dso_local void @job_desc_msg_destroy(ptr noundef %0) #0 {
  %2 = alloca ptr, align 8
  store ptr %0, ptr %2, align 8
  %3 = load ptr, ptr %2, align 8
  %4 = icmp ne ptr %3, null
  br i1 %4, label %5, label %8

5:                                                ; preds = %1
  %6 = load ptr, ptr %2, align 8
  %7 = getelementptr inbounds nuw %struct.job_descriptor, ptr %6, i32 0, i32 74
  call void @slurm_xfree(ptr noundef %7)
  call void @slurm_xfree(ptr noundef %2)
  br label %8

8:                                                ; preds = %5, %1
  ret void
}

; Function Attrs: nounwind uwtable
define internal i32 @_allocate_test(ptr noundef %0) #0 {
  %2 = alloca i32, align 4
  %3 = alloca ptr, align 8
  %4 = alloca ptr, align 8
  %5 = alloca i32, align 4
  %6 = alloca i32, align 4
  store ptr %0, ptr %3, align 8
  call void @llvm.lifetime.start.p0(i64 8, ptr %4) #7
  call void @llvm.lifetime.start.p0(i64 4, ptr %5) #7
  %7 = load ptr, ptr %3, align 8
  %8 = call ptr @_job_desc_msg_create_from_opts(ptr noundef %7)
  store ptr %8, ptr %4, align 8
  %9 = icmp eq ptr %8, null
  br i1 %9, label %10, label %11

10:                                               ; preds = %1
  store i32 -1, ptr %2, align 4
  store i32 1, ptr %6, align 4
  br label %32

11:                                               ; preds = %1
  %12 = load ptr, ptr %3, align 8
  %13 = getelementptr inbounds nuw %struct.slurm_opt_t, ptr %12, i32 0, i32 12
  %14 = load ptr, ptr %13, align 8
  %15 = icmp ne ptr %14, null
  br i1 %15, label %16, label %27

16:                                               ; preds = %11
  %17 = load ptr, ptr %4, align 8
  %18 = load ptr, ptr %3, align 8
  %19 = getelementptr inbounds nuw %struct.slurm_opt_t, ptr %18, i32 0, i32 12
  %20 = load ptr, ptr %19, align 8
  %21 = call i32 @slurmdb_get_first_avail_cluster(ptr noundef %17, ptr noundef %20, ptr noundef @working_cluster_rec)
  %22 = icmp ne i32 %21, 0
  br i1 %22, label %23, label %27

23:                                               ; preds = %16
  %24 = load ptr, ptr %3, align 8
  %25 = getelementptr inbounds nuw %struct.slurm_opt_t, ptr %24, i32 0, i32 12
  %26 = load ptr, ptr %25, align 8
  call void @print_db_notok(ptr noundef %26, i1 noundef zeroext false)
  store i32 -1, ptr %2, align 4
  store i32 1, ptr %6, align 4
  br label %32

27:                                               ; preds = %16, %11
  %28 = load ptr, ptr %4, align 8
  %29 = call i32 @slurm_job_will_run(ptr noundef %28)
  store i32 %29, ptr %5, align 4
  %30 = load ptr, ptr %4, align 8
  call void @job_desc_msg_destroy(ptr noundef %30)
  %31 = load i32, ptr %5, align 4
  store i32 %31, ptr %2, align 4
  store i32 1, ptr %6, align 4
  br label %32

32:                                               ; preds = %27, %23, %10
  call void @llvm.lifetime.end.p0(i64 4, ptr %5) #7
  call void @llvm.lifetime.end.p0(i64 8, ptr %4) #7
  %33 = load i32, ptr %2, align 4
  ret i32 %33
}

; Function Attrs: nounwind uwtable
define dso_local i32 @allocate_test() #0 {
  %1 = alloca i32, align 4
  %2 = alloca ptr, align 8
  %3 = alloca ptr, align 8
  call void @llvm.lifetime.start.p0(i64 4, ptr %1) #7
  store i32 0, ptr %1, align 4
  call void @llvm.lifetime.start.p0(i64 8, ptr %2) #7
  call void @llvm.lifetime.start.p0(i64 8, ptr %3) #7
  %4 = load ptr, ptr @opt_list, align 8
  %5 = icmp ne ptr %4, null
  br i1 %5, label %6, label %21

6:                                                ; preds = %0
  %7 = load ptr, ptr @opt_list, align 8
  %8 = call ptr @list_iterator_create(ptr noundef %7)
  store ptr %8, ptr %2, align 8
  br label %9

9:                                                ; preds = %18, %6
  %10 = load ptr, ptr %2, align 8
  %11 = call ptr @list_next(ptr noundef %10)
  store ptr %11, ptr %3, align 8
  %12 = icmp ne ptr %11, null
  br i1 %12, label %13, label %19

13:                                               ; preds = %9
  %14 = load ptr, ptr %3, align 8
  %15 = call i32 @_allocate_test(ptr noundef %14)
  store i32 %15, ptr %1, align 4
  %16 = icmp ne i32 %15, 0
  br i1 %16, label %17, label %18

17:                                               ; preds = %13
  br label %19

18:                                               ; preds = %13
  br label %9, !llvm.loop !8

19:                                               ; preds = %17, %9
  %20 = load ptr, ptr %2, align 8
  call void @list_iterator_destroy(ptr noundef %20)
  br label %23

21:                                               ; preds = %0
  %22 = call i32 @_allocate_test(ptr noundef @opt)
  store i32 %22, ptr %1, align 4
  br label %23

23:                                               ; preds = %21, %19
  %24 = load i32, ptr %1, align 4
  call void @llvm.lifetime.end.p0(i64 8, ptr %3) #7
  call void @llvm.lifetime.end.p0(i64 8, ptr %2) #7
  call void @llvm.lifetime.end.p0(i64 4, ptr %1) #7
  ret i32 %24
}