; Function Attrs: nounwind uwtable
define dso_local i32 @allocate_test() local_unnamed_addr #0 {
  %1 = alloca ptr, align 8
  %2 = alloca ptr, align 8
  %3 = load ptr, ptr @opt_list, align 8
  %.not = icmp eq ptr %3, null
  br i1 %.not, label %21, label %4

4:                                                ; preds = %0
  %5 = tail call ptr @list_iterator_create(ptr noundef nonnull %3) #9
  br label %6

6:                                                ; preds = %_allocate_test.exit, %4
  %7 = call ptr @list_next(ptr noundef %5) #9
  %.not7 = icmp eq ptr %7, null
  br i1 %.not7, label %_allocate_test.exit.thread, label %8

8:                                                ; preds = %6
  %9 = call fastcc ptr @_job_desc_msg_create_from_opts(ptr noundef nonnull %7)
  %10 = icmp eq ptr %9, null
  br i1 %10, label %_allocate_test.exit.thread, label %11

11:                                               ; preds = %8
  %12 = getelementptr inbounds nuw i8, ptr %7, i64 96
  %13 = load ptr, ptr %12, align 8
  %.not.i = icmp eq ptr %13, null
  br i1 %.not.i, label %_allocate_test.exit, label %14

14:                                               ; preds = %11
  %15 = call i32 @slurmdb_get_first_avail_cluster(ptr noundef nonnull %9, ptr noundef nonnull %13, ptr noundef nonnull @working_cluster_rec) #9
  %.not10.i = icmp eq i32 %15, 0
  br i1 %.not10.i, label %_allocate_test.exit, label %16

16:                                               ; preds = %14
  %17 = getelementptr inbounds nuw i8, ptr %7, i64 96
  %18 = load ptr, ptr %17, align 8
  call void @print_db_notok(ptr noundef %18, i1 noundef zeroext false) #9
  br label %_allocate_test.exit.thread

_allocate_test.exit:                              ; preds = %11, %14
  %19 = call i32 @slurm_job_will_run(ptr noundef nonnull %9) #9
  call void @llvm.lifetime.start.p0(i64 8, ptr nonnull %2)
  store ptr %9, ptr %2, align 8
  %20 = getelementptr inbounds nuw i8, ptr %9, i64 544
  call void @slurm_xfree(ptr noundef nonnull %20) #9
  call void @slurm_xfree(ptr noundef nonnull %2) #9
  call void @llvm.lifetime.end.p0(i64 8, ptr nonnull %2)
  %.not8 = icmp eq i32 %19, 0
  br i1 %.not8, label %6, label %_allocate_test.exit.thread, !llvm.loop !8

_allocate_test.exit.thread:                       ; preds = %8, %_allocate_test.exit, %6, %16
  %.1 = phi i32 [ -1, %16 ], [ -1, %8 ], [ 0, %6 ], [ %19, %_allocate_test.exit ]
  call void @list_iterator_destroy(ptr noundef %5) #9
  br label %_allocate_test.exit13

21:                                               ; preds = %0
  %22 = tail call fastcc ptr @_job_desc_msg_create_from_opts(ptr noundef nonnull @opt)
  %23 = icmp eq ptr %22, null
  br i1 %23, label %_allocate_test.exit13, label %24

24:                                               ; preds = %21
  %25 = load ptr, ptr getelementptr inbounds nuw (i8, ptr @opt, i64 96), align 8
  %.not.i9 = icmp eq ptr %25, null
  br i1 %.not.i9, label %job_desc_msg_destroy.exit.i12, label %26

26:                                               ; preds = %24
  %27 = tail call i32 @slurmdb_get_first_avail_cluster(ptr noundef nonnull %22, ptr noundef nonnull %25, ptr noundef nonnull @working_cluster_rec) #9
  %.not10.i10 = icmp eq i32 %27, 0
  br i1 %.not10.i10, label %job_desc_msg_destroy.exit.i12, label %28

28:                                               ; preds = %26
  %29 = load ptr, ptr getelementptr inbounds nuw (i8, ptr @opt, i64 96), align 8
  tail call void @print_db_notok(ptr noundef %29, i1 noundef zeroext false) #9
  br label %_allocate_test.exit13

job_desc_msg_destroy.exit.i12:                    ; preds = %26, %24
  %30 = tail call i32 @slurm_job_will_run(ptr noundef nonnull %22) #9
  call void @llvm.lifetime.start.p0(i64 8, ptr nonnull %1)
  store ptr %22, ptr %1, align 8
  %31 = getelementptr inbounds nuw i8, ptr %22, i64 544
  tail call void @slurm_xfree(ptr noundef nonnull %31) #9
  call void @slurm_xfree(ptr noundef nonnull %1) #9
  call void @llvm.lifetime.end.p0(i64 8, ptr nonnull %1)
  br label %_allocate_test.exit13

_allocate_test.exit13:                            ; preds = %job_desc_msg_destroy.exit.i12, %28, %21, %_allocate_test.exit.thread
  %.2 = phi i32 [ %.1, %_allocate_test.exit.thread ], [ -1, %28 ], [ %30, %job_desc_msg_destroy.exit.i12 ], [ -1, %21 ]
  ret i32 %.2
}